target datalayout = "e-m:e-p270:32:32-p271:32:32-p272:64:64-i64:64-i128:128-f80:128-n8:16:32:64-S128"
target triple = "x86_64-pc-linux-gnu"

%struct.nameData = type { [64 x i8] }
%struct.TypeCacheEntry = type { i32, i32, i16, i8, i8, i8, i8, i32, i32, i32, i32, i32, i32, i32, i32, i32, i32, i32, i32, i32, i32, %struct.FmgrInfo, %struct.FmgrInfo, %struct.FmgrInfo, %struct.FmgrInfo, ptr, i64, ptr, i32, i32, %struct.FmgrInfo, %struct.FmgrInfo, %struct.FmgrInfo, ptr, i32, i32, ptr, i32, ptr, ptr }
%struct.FmgrInfo = type { ptr, i32, i16, i8, i8, i8, ptr, ptr, ptr }
%struct.HeapTupleData = type { i32, %struct.ItemPointerData, i32, ptr }
%struct.ItemPointerData = type { %struct.BlockIdData, i16 }
%struct.BlockIdData = type { i16, i16 }
%struct.HeapTupleHeaderData = type { %union.anon.0, %struct.ItemPointerData, i16, i16, i8, [0 x i8] }
%union.anon.0 = type { %struct.HeapTupleFields }
%struct.HeapTupleFields = type { i32, i32, %union.anon.1 }
%union.anon.1 = type { i32 }
%struct.ScanKeyData = type { i32, i16, i16, i32, i32, %struct.FmgrInfo, i64 }
%struct.EnumItem = type { i32, float }
%struct.FormData_pg_enum = type { i32, i32, float, %struct.nameData }
%struct.TypeCacheEnumData = type { i32, ptr, i32, [0 x %struct.EnumItem] }

@CacheMemoryContext = external global ptr, align 8
@.str.3 = private unnamed_addr constant [11 x i8] c"typcache.c\00", align 1
@CurrentMemoryContext = external global ptr, align 8
@.str.23 = private unnamed_addr constant [18 x i8] c"%s is not an enum\00", align 1
@__func__.load_enum_cache_data = private unnamed_addr constant [21 x i8] c"load_enum_cache_data\00", align 1

; Function Attrs: inlinehint nounwind uwtable
define internal ptr @MemoryContextSwitchTo(ptr noundef %0) #3 {
  %2 = alloca ptr, align 8
  %3 = alloca ptr, align 8
  store ptr %0, ptr %2, align 8
  call void @llvm.lifetime.start.p0(i64 8, ptr %3) #11
  %4 = load ptr, ptr @CurrentMemoryContext, align 8
  store ptr %4, ptr %3, align 8
  %5 = load ptr, ptr %2, align 8
  store ptr %5, ptr @CurrentMemoryContext, align 8
  %6 = load ptr, ptr %3, align 8
  call void @llvm.lifetime.end.p0(i64 8, ptr %3) #11
  ret ptr %6
}

; Function Attrs: inlinehint nounwind uwtable
define internal ptr @GETSTRUCT(ptr noundef %0) #3 {
  %2 = alloca ptr, align 8
  store ptr %0, ptr %2, align 8
  %3 = load ptr, ptr %2, align 8
  %4 = getelementptr inbounds nuw %struct.HeapTupleData, ptr %3, i32 0, i32 3
  %5 = load ptr, ptr %4, align 8
  %6 = load ptr, ptr %2, align 8
  %7 = getelementptr inbounds nuw %struct.HeapTupleData, ptr %6, i32 0, i32 3
  %8 = load ptr, ptr %7, align 8
  %9 = getelementptr inbounds nuw %struct.HeapTupleHeaderData, ptr %8, i32 0, i32 4
  %10 = load i8, ptr %9, align 2
  %11 = zext i8 %10 to i32
  %12 = sext i32 %11 to i64
  %13 = getelementptr inbounds i8, ptr %5, i64 %12
  ret ptr %13
}

; Function Attrs: inlinehint nounwind uwtable
define internal i64 @ObjectIdGetDatum(i32 noundef %0) #3 {
  %2 = alloca i32, align 4
  store i32 %0, ptr %2, align 4
  %3 = load i32, ptr %2, align 4
  %4 = zext i32 %3 to i64
  ret i64 %4
}

; Function Attrs: nounwind uwtable
define internal void @load_enum_cache_data(ptr noundef %0) #0 {
  %2 = alloca ptr, align 8
  %3 = alloca ptr, align 8
  %4 = alloca ptr, align 8
  %5 = alloca ptr, align 8
  %6 = alloca ptr, align 8
  %7 = alloca %struct.ScanKeyData, align 8
  %8 = alloca ptr, align 8
  %9 = alloca i32, align 4
  %10 = alloca i32, align 4
  %11 = alloca i32, align 4
  %12 = alloca ptr, align 8
  %13 = alloca ptr, align 8
  %14 = alloca i32, align 4
  %15 = alloca i32, align 4
  %16 = alloca ptr, align 8
  %17 = alloca ptr, align 8
  %18 = alloca i32, align 4
  %19 = alloca i32, align 4
  %20 = alloca float, align 4
  %21 = alloca i32, align 4
  %22 = alloca i32, align 4
  %23 = alloca i32, align 4
  store ptr %0, ptr %2, align 8
  call void @llvm.lifetime.start.p0(i64 8, ptr %3) #11
  call void @llvm.lifetime.start.p0(i64 8, ptr %4) #11
  call void @llvm.lifetime.start.p0(i64 8, ptr %5) #11
  call void @llvm.lifetime.start.p0(i64 8, ptr %6) #11
  call void @llvm.lifetime.start.p0(i64 72, ptr %7) #11
  call void @llvm.lifetime.start.p0(i64 8, ptr %8) #11
  call void @llvm.lifetime.start.p0(i64 4, ptr %9) #11
  call void @llvm.lifetime.start.p0(i64 4, ptr %10) #11
  call void @llvm.lifetime.start.p0(i64 4, ptr %11) #11
  call void @llvm.lifetime.start.p0(i64 8, ptr %12) #11
  call void @llvm.lifetime.start.p0(i64 8, ptr %13) #11
  call void @llvm.lifetime.start.p0(i64 4, ptr %14) #11
  call void @llvm.lifetime.start.p0(i64 4, ptr %15) #11
  %24 = load ptr, ptr %2, align 8
  %25 = getelementptr inbounds nuw %struct.TypeCacheEntry, ptr %24, i32 0, i32 6
  %26 = load i8, ptr %25, align 1
  %27 = sext i8 %26 to i32
  %28 = icmp ne i32 %27, 101
  br i1 %28, label %29, label %45

29:                                               ; preds = %1
  br label %30

30:                                               ; preds = %29
  br i1 true, label %31, label %33

31:                                               ; preds = %30
  %32 = call zeroext i1 @errstart_cold(i32 noundef 21, ptr noundef null) #12
  br i1 %32, label %35, label %42

33:                                               ; preds = %30
  %34 = call zeroext i1 @errstart(i32 noundef 21, ptr noundef null)
  br i1 %34, label %35, label %42

35:                                               ; preds = %33, %31
  %36 = call i32 @errcode(i32 noundef 151027844)
  %37 = load ptr, ptr %2, align 8
  %38 = getelementptr inbounds nuw %struct.TypeCacheEntry, ptr %37, i32 0, i32 0
  %39 = load i32, ptr %38, align 8
  %40 = call ptr @format_type_be(i32 noundef %39)
  %41 = call i32 (ptr, ...) @errmsg(ptr noundef @.str.23, ptr noundef %40)
  call void @errfinish(ptr noundef @.str.3, i32 noundef 2744, ptr noundef @__func__.load_enum_cache_data)
  br label %42

42:                                               ; preds = %35, %33, %31
  unreachable

43:                                               ; No predecessors!
  br label %44

44:                                               ; preds = %43
  br label %45

45:                                               ; preds = %44, %1
  store i32 64, ptr %10, align 4
  %46 = load i32, ptr %10, align 4
  %47 = sext i32 %46 to i64
  %48 = mul i64 8, %47
  %49 = call ptr @palloc(i64 noundef %48)
  store ptr %49, ptr %8, align 8
  store i32 0, ptr %9, align 4
  %50 = load ptr, ptr %2, align 8
  %51 = getelementptr inbounds nuw %struct.TypeCacheEntry, ptr %50, i32 0, i32 0
  %52 = load i32, ptr %51, align 8
  %53 = call i64 @ObjectIdGetDatum(i32 noundef %52)
  call void @ScanKeyInit(ptr noundef %7, i16 noundef signext 2, i16 noundef zeroext 3, i32 noundef 184, i64 noundef %53)
  %54 = call ptr @table_open(i32 noundef 3501, i32 noundef 1)
  store ptr %54, ptr %4, align 8
  %55 = load ptr, ptr %4, align 8
  %56 = call ptr @systable_beginscan(ptr noundef %55, i32 noundef 3503, i1 noundef zeroext true, ptr noundef null, i32 noundef 1, ptr noundef %7)
  store ptr %56, ptr %5, align 8
  br label %57

57:                                               ; preds = %75, %45
  %58 = load ptr, ptr %5, align 8
  %59 = call ptr @systable_getnext(ptr noundef %58)
  store ptr %59, ptr %6, align 8
  %60 = icmp ne ptr %59, null
  br i1 %60, label %61, label %94

61:                                               ; preds = %57
  call void @llvm.lifetime.start.p0(i64 8, ptr %16) #11
  %62 = load ptr, ptr %6, align 8
  %63 = call ptr @GETSTRUCT(ptr noundef %62)
  store ptr %63, ptr %16, align 8
  %64 = load i32, ptr %9, align 4
  %65 = load i32, ptr %10, align 4
  %66 = icmp sge i32 %64, %65
  br i1 %66, label %67, label %75

67:                                               ; preds = %61
  %68 = load i32, ptr %10, align 4
  %69 = mul i32 %68, 2
  store i32 %69, ptr %10, align 4
  %70 = load ptr, ptr %8, align 8
  %71 = load i32, ptr %10, align 4
  %72 = sext i32 %71 to i64
  %73 = mul i64 8, %72
  %74 = call ptr @repalloc(ptr noundef %70, i64 noundef %73)
  store ptr %74, ptr %8, align 8
  br label %75

75:                                               ; preds = %67, %61
  %76 = load ptr, ptr %16, align 8
  %77 = getelementptr inbounds nuw %struct.FormData_pg_enum, ptr %76, i32 0, i32 0
  %78 = load i32, ptr %77, align 4
  %79 = load ptr, ptr %8, align 8
  %80 = load i32, ptr %9, align 4
  %81 = sext i32 %80 to i64
  %82 = getelementptr inbounds %struct.EnumItem, ptr %79, i64 %81
  %83 = getelementptr inbounds nuw %struct.EnumItem, ptr %82, i32 0, i32 0
  store i32 %78, ptr %83, align 4
  %84 = load ptr, ptr %16, align 8
  %85 = getelementptr inbounds nuw %struct.FormData_pg_enum, ptr %84, i32 0, i32 2
  %86 = load float, ptr %85, align 4
  %87 = load ptr, ptr %8, align 8
  %88 = load i32, ptr %9, align 4
  %89 = sext i32 %88 to i64
  %90 = getelementptr inbounds %struct.EnumItem, ptr %87, i64 %89
  %91 = getelementptr inbounds nuw %struct.EnumItem, ptr %90, i32 0, i32 1
  store float %86, ptr %91, align 4
  %92 = load i32, ptr %9, align 4
  %93 = add i32 %92, 1
  store i32 %93, ptr %9, align 4
  call void @llvm.lifetime.end.p0(i64 8, ptr %16) #11
  br label %57, !llvm.loop !17

94:                                               ; preds = %57
  %95 = load ptr, ptr %5, align 8
  call void @systable_endscan(ptr noundef %95)
  %96 = load ptr, ptr %4, align 8
  call void @table_close(ptr noundef %96, i32 noundef 1)
  %97 = load ptr, ptr %8, align 8
  %98 = load i32, ptr %9, align 4
  %99 = sext i32 %98 to i64
  call void @pg_qsort(ptr noundef %97, i64 noundef %99, i64 noundef 8, ptr noundef @enum_oid_cmp)
  store i32 0, ptr %11, align 4
  store ptr null, ptr %12, align 8
  store i32 1, ptr %14, align 4
  store i32 0, ptr %15, align 4
  br label %100

100:                                              ; preds = %188, %94
  %101 = load i32, ptr %15, align 4
  %102 = load i32, ptr %9, align 4
  %103 = sub i32 %102, 1
  %104 = icmp slt i32 %101, %103
  br i1 %104, label %105, label %191

105:                                              ; preds = %100
  call void @llvm.lifetime.start.p0(i64 8, ptr %17) #11
  %106 = call ptr @bms_make_singleton(i32 noundef 0)
  store ptr %106, ptr %17, align 8
  call void @llvm.lifetime.start.p0(i64 4, ptr %18) #11
  store i32 1, ptr %18, align 4
  call void @llvm.lifetime.start.p0(i64 4, ptr %19) #11
  %107 = load ptr, ptr %8, align 8
  %108 = load i32, ptr %15, align 4
  %109 = sext i32 %108 to i64
  %110 = getelementptr inbounds %struct.EnumItem, ptr %107, i64 %109
  %111 = getelementptr inbounds nuw %struct.EnumItem, ptr %110, i32 0, i32 0
  %112 = load i32, ptr %111, align 4
  store i32 %112, ptr %19, align 4
  call void @llvm.lifetime.start.p0(i64 4, ptr %20) #11
  %113 = load ptr, ptr %8, align 8
  %114 = load i32, ptr %15, align 4
  %115 = sext i32 %114 to i64
  %116 = getelementptr inbounds %struct.EnumItem, ptr %113, i64 %115
  %117 = getelementptr inbounds nuw %struct.EnumItem, ptr %116, i32 0, i32 1
  %118 = load float, ptr %117, align 4
  store float %118, ptr %20, align 4
  call void @llvm.lifetime.start.p0(i64 4, ptr %21) #11
  %119 = load i32, ptr %15, align 4
  %120 = add i32 %119, 1
  store i32 %120, ptr %21, align 4
  br label %121

121:                                              ; preds = %162, %105
  %122 = load i32, ptr %21, align 4
  %123 = load i32, ptr %9, align 4
  %124 = icmp slt i32 %122, %123
  br i1 %124, label %125, label %165

125:                                              ; preds = %121
  call void @llvm.lifetime.start.p0(i64 4, ptr %22) #11
  %126 = load ptr, ptr %8, align 8
  %127 = load i32, ptr %21, align 4
  %128 = sext i32 %127 to i64
  %129 = getelementptr inbounds %struct.EnumItem, ptr %126, i64 %128
  %130 = getelementptr inbounds nuw %struct.EnumItem, ptr %129, i32 0, i32 0
  %131 = load i32, ptr %130, align 4
  %132 = load i32, ptr %19, align 4
  %133 = sub i32 %131, %132
  store i32 %133, ptr %22, align 4
  %134 = load i32, ptr %22, align 4
  %135 = icmp uge i32 %134, 8192
  br i1 %135, label %136, label %137

136:                                              ; preds = %125
  store i32 9, ptr %23, align 4
  br label %159

137:                                              ; preds = %125
  %138 = load ptr, ptr %8, align 8
  %139 = load i32, ptr %21, align 4
  %140 = sext i32 %139 to i64
  %141 = getelementptr inbounds %struct.EnumItem, ptr %138, i64 %140
  %142 = getelementptr inbounds nuw %struct.EnumItem, ptr %141, i32 0, i32 1
  %143 = load float, ptr %142, align 4
  %144 = load float, ptr %20, align 4
  %145 = fcmp ogt float %143, %144
  br i1 %145, label %146, label %158

146:                                              ; preds = %137
  %147 = load ptr, ptr %8, align 8
  %148 = load i32, ptr %21, align 4
  %149 = sext i32 %148 to i64
  %150 = getelementptr inbounds %struct.EnumItem, ptr %147, i64 %149
  %151 = getelementptr inbounds nuw %struct.EnumItem, ptr %150, i32 0, i32 1
  %152 = load float, ptr %151, align 4
  store float %152, ptr %20, align 4
  %153 = load ptr, ptr %17, align 8
  %154 = load i32, ptr %22, align 4
  %155 = call ptr @bms_add_member(ptr noundef %153, i32 noundef %154)
  store ptr %155, ptr %17, align 8
  %156 = load i32, ptr %18, align 4
  %157 = add i32 %156, 1
  store i32 %157, ptr %18, align 4
  br label %158

158:                                              ; preds = %146, %137
  store i32 0, ptr %23, align 4
  br label %159

159:                                              ; preds = %158, %136
  call void @llvm.lifetime.end.p0(i64 4, ptr %22) #11
  %160 = load i32, ptr %23, align 4
  switch i32 %160, label %232 [
    i32 0, label %161
    i32 9, label %165
  ]

161:                                              ; preds = %159
  br label %162

162:                                              ; preds = %161
  %163 = load i32, ptr %21, align 4
  %164 = add i32 %163, 1
  store i32 %164, ptr %21, align 4
  br label %121, !llvm.loop !18

165:                                              ; preds = %159, %121
  %166 = load i32, ptr %18, align 4
  %167 = load i32, ptr %14, align 4
  %168 = icmp sgt i32 %166, %167
  br i1 %168, label %169, label %174

169:                                              ; preds = %165
  %170 = load ptr, ptr %12, align 8
  call void @bms_free(ptr noundef %170)
  %171 = load i32, ptr %19, align 4
  store i32 %171, ptr %11, align 4
  %172 = load ptr, ptr %17, align 8
  store ptr %172, ptr %12, align 8
  %173 = load i32, ptr %18, align 4
  store i32 %173, ptr %14, align 4
  br label %176

174:                                              ; preds = %165
  %175 = load ptr, ptr %17, align 8
  call void @bms_free(ptr noundef %175)
  br label %176

176:                                              ; preds = %174, %169
  %177 = load i32, ptr %14, align 4
  %178 = load i32, ptr %9, align 4
  %179 = load i32, ptr %15, align 4
  %180 = sub i32 %178, %179
  %181 = sub i32 %180, 1
  %182 = icmp sge i32 %177, %181
  br i1 %182, label %183, label %184

183:                                              ; preds = %176
  store i32 6, ptr %23, align 4
  br label %185

184:                                              ; preds = %176
  store i32 0, ptr %23, align 4
  br label %185

185:                                              ; preds = %184, %183
  call void @llvm.lifetime.end.p0(i64 4, ptr %21) #11
  call void @llvm.lifetime.end.p0(i64 4, ptr %20) #11
  call void @llvm.lifetime.end.p0(i64 4, ptr %19) #11
  call void @llvm.lifetime.end.p0(i64 4, ptr %18) #11
  call void @llvm.lifetime.end.p0(i64 8, ptr %17) #11
  %186 = load i32, ptr %23, align 4
  switch i32 %186, label %232 [
    i32 0, label %187
    i32 6, label %191
  ]

187:                                              ; preds = %185
  br label %188

188:                                              ; preds = %187
  %189 = load i32, ptr %15, align 4
  %190 = add i32 %189, 1
  store i32 %190, ptr %15, align 4
  br label %100, !llvm.loop !19

191:                                              ; preds = %185, %100
  %192 = load ptr, ptr @CacheMemoryContext, align 8
  %193 = call ptr @MemoryContextSwitchTo(ptr noundef %192)
  store ptr %193, ptr %13, align 8
  %194 = load i32, ptr %9, align 4
  %195 = sext i32 %194 to i64
  %196 = mul i64 %195, 8
  %197 = add i64 20, %196
  %198 = call ptr @palloc(i64 noundef %197)
  store ptr %198, ptr %3, align 8
  %199 = load i32, ptr %11, align 4
  %200 = load ptr, ptr %3, align 8
  %201 = getelementptr inbounds nuw %struct.TypeCacheEnumData, ptr %200, i32 0, i32 0
  store i32 %199, ptr %201, align 8
  %202 = load ptr, ptr %12, align 8
  %203 = call ptr @bms_copy(ptr noundef %202)
  %204 = load ptr, ptr %3, align 8
  %205 = getelementptr inbounds nuw %struct.TypeCacheEnumData, ptr %204, i32 0, i32 1
  store ptr %203, ptr %205, align 8
  %206 = load i32, ptr %9, align 4
  %207 = load ptr, ptr %3, align 8
  %208 = getelementptr inbounds nuw %struct.TypeCacheEnumData, ptr %207, i32 0, i32 2
  store i32 %206, ptr %208, align 8
  %209 = load ptr, ptr %3, align 8
  %210 = getelementptr inbounds nuw %struct.TypeCacheEnumData, ptr %209, i32 0, i32 3
  %211 = getelementptr inbounds [0 x %struct.EnumItem], ptr %210, i64 0, i64 0
  %212 = load ptr, ptr %8, align 8
  %213 = load i32, ptr %9, align 4
  %214 = sext i32 %213 to i64
  %215 = mul i64 %214, 8
  call void @llvm.memcpy.p0.p0.i64(ptr align 4 %211, ptr align 4 %212, i64 %215, i1 false)
  %216 = load ptr, ptr %13, align 8
  %217 = call ptr @MemoryContextSwitchTo(ptr noundef %216)
  %218 = load ptr, ptr %8, align 8
  call void @pfree(ptr noundef %218)
  %219 = load ptr, ptr %12, align 8
  call void @bms_free(ptr noundef %219)
  %220 = load ptr, ptr %2, align 8
  %221 = getelementptr inbounds nuw %struct.TypeCacheEntry, ptr %220, i32 0, i32 38
  %222 = load ptr, ptr %221, align 8
  %223 = icmp ne ptr %222, null
  br i1 %223, label %224, label %228

224:                                              ; preds = %191
  %225 = load ptr, ptr %2, align 8
  %226 = getelementptr inbounds nuw %struct.TypeCacheEntry, ptr %225, i32 0, i32 38
  %227 = load ptr, ptr %226, align 8
  call void @pfree(ptr noundef %227)
  br label %228

228:                                              ; preds = %224, %191
  %229 = load ptr, ptr %3, align 8
  %230 = load ptr, ptr %2, align 8
  %231 = getelementptr inbounds nuw %struct.TypeCacheEntry, ptr %230, i32 0, i32 38
  store ptr %229, ptr %231, align 8
  call void @llvm.lifetime.end.p0(i64 4, ptr %15) #11
  call void @llvm.lifetime.end.p0(i64 4, ptr %14) #11
  call void @llvm.lifetime.end.p0(i64 8, ptr %13) #11
  call void @llvm.lifetime.end.p0(i64 8, ptr %12) #11
  call void @llvm.lifetime.end.p0(i64 4, ptr %11) #11
  call void @llvm.lifetime.end.p0(i64 4, ptr %10) #11
  call void @llvm.lifetime.end.p0(i64 4, ptr %9) #11
  call void @llvm.lifetime.end.p0(i64 8, ptr %8) #11
  call void @llvm.lifetime.end.p0(i64 72, ptr %7) #11
  call void @llvm.lifetime.end.p0(i64 8, ptr %6) #11
  call void @llvm.lifetime.end.p0(i64 8, ptr %5) #11
  call void @llvm.lifetime.end.p0(i64 8, ptr %4) #11
  call void @llvm.lifetime.end.p0(i64 8, ptr %3) #11
  ret void

232:                                              ; preds = %185, %159
  unreachable
}