; Function Attrs: nounwind uwtable
define internal fastcc void @load_enum_cache_data(ptr noundef captures(none) %0) unnamed_addr #0 {
  %2 = alloca %struct.ScanKeyData, align 8
  call void @llvm.lifetime.start.p0(i64 72, ptr nonnull %2) #16
  %3 = getelementptr inbounds nuw i8, ptr %0, i64 13
  %4 = load i8, ptr %3, align 1
  %.not = icmp eq i8 %4, 101
  br i1 %.not, label %11, label %5

5:                                                ; preds = %1
  %6 = tail call zeroext i1 @errstart_cold(i32 noundef 21, ptr noundef null) #17
  tail call void @llvm.assume(i1 %6)
  %7 = tail call i32 @errcode(i32 noundef 151027844) #16
  %8 = load i32, ptr %0, align 8
  %9 = tail call ptr @format_type_be(i32 noundef %8) #16
  %10 = tail call i32 (ptr, ...) @errmsg(ptr noundef nonnull @.str.23, ptr noundef %9) #16
  tail call void @errfinish(ptr noundef nonnull @.str.3, i32 noundef 2744, ptr noundef nonnull @__func__.load_enum_cache_data) #16
  unreachable

11:                                               ; preds = %1
  %12 = tail call ptr @palloc(i64 noundef 512) #16
  %13 = load i32, ptr %0, align 8
  %14 = zext i32 %13 to i64
  call void @ScanKeyInit(ptr noundef nonnull %2, i16 noundef signext 2, i16 noundef zeroext 3, i32 noundef 184, i64 noundef %14) #16
  %15 = call ptr @table_open(i32 noundef 3501, i32 noundef 1) #16
  %16 = call ptr @systable_beginscan(ptr noundef %15, i32 noundef 3503, i1 noundef zeroext true, ptr noundef null, i32 noundef 1, ptr noundef nonnull %2) #16
  %17 = call ptr @systable_getnext(ptr noundef %16) #16
  %.not102114 = icmp eq ptr %17, null
  br i1 %.not102114, label %._crit_edge, label %.lr.ph

.lr.ph:                                           ; preds = %11, %29
  %18 = phi ptr [ %37, %29 ], [ %17, %11 ]
  %.074117 = phi ptr [ %.175, %29 ], [ %12, %11 ]
  %.079116 = phi i32 [ %36, %29 ], [ 0, %11 ]
  %.087115 = phi i32 [ %.188, %29 ], [ 64, %11 ]
  %19 = getelementptr i8, ptr %18, i64 16
  %.val = load ptr, ptr %19, align 8
  %20 = getelementptr inbounds nuw i8, ptr %.val, i64 22
  %21 = load i8, ptr %20, align 2
  %22 = zext i8 %21 to i64
  %23 = getelementptr inbounds nuw i8, ptr %.val, i64 %22
  %.not105 = icmp slt i32 %.079116, %.087115
  br i1 %.not105, label %29, label %24

24:                                               ; preds = %.lr.ph
  %25 = shl i32 %.087115, 1
  %26 = sext i32 %25 to i64
  %27 = shl nsw i64 %26, 3
  %28 = call ptr @repalloc(ptr noundef %.074117, i64 noundef %27) #16
  br label %29

29:                                               ; preds = %24, %.lr.ph
  %.188 = phi i32 [ %25, %24 ], [ %.087115, %.lr.ph ]
  %.175 = phi ptr [ %28, %24 ], [ %.074117, %.lr.ph ]
  %30 = load i32, ptr %23, align 4
  %31 = sext i32 %.079116 to i64
  %32 = getelementptr inbounds %struct.EnumItem, ptr %.175, i64 %31
  store i32 %30, ptr %32, align 4
  %33 = getelementptr inbounds nuw i8, ptr %23, i64 8
  %34 = load float, ptr %33, align 4
  %35 = getelementptr inbounds nuw i8, ptr %32, i64 4
  store float %34, ptr %35, align 4
  %36 = add i32 %.079116, 1
  %37 = call ptr @systable_getnext(ptr noundef %16) #16
  %.not102 = icmp eq ptr %37, null
  br i1 %.not102, label %._crit_edge, label %.lr.ph, !llvm.loop !17

._crit_edge:                                      ; preds = %29, %11
  %.079.lcssa = phi i32 [ 0, %11 ], [ %36, %29 ]
  %.074.lcssa = phi ptr [ %12, %11 ], [ %.175, %29 ]
  call void @systable_endscan(ptr noundef %16) #16
  call void @table_close(ptr noundef %15, i32 noundef 1) #16
  %38 = sext i32 %.079.lcssa to i64
  call void @pg_qsort(ptr noundef %.074.lcssa, i64 noundef %38, i64 noundef 8, ptr noundef nonnull @enum_oid_cmp) #16
  %39 = add i32 %.079.lcssa, -1
  %smax = call i32 @llvm.smax.i32(i32 %39, i32 0)
  %wide.trip.count = zext nneg i32 %smax to i64
  br label %40

40:                                               ; preds = %._crit_edge125, %._crit_edge
  %indvars.iv134 = phi i64 [ %indvars.iv.next135, %._crit_edge125 ], [ 0, %._crit_edge ]
  %indvars.iv = phi i64 [ %indvars.iv.next, %._crit_edge125 ], [ 1, %._crit_edge ]
  %.095 = phi ptr [ %.083.lcssa..095, %._crit_edge125 ], [ null, %._crit_edge ]
  %.092 = phi i32 [ %..092, %._crit_edge125 ], [ 0, %._crit_edge ]
  %.090 = phi i32 [ %.080.lcssa..090, %._crit_edge125 ], [ 1, %._crit_edge ]
  %exitcond137.not = icmp eq i64 %indvars.iv134, %wide.trip.count
  br i1 %exitcond137.not, label %65, label %41

41:                                               ; preds = %40
  %42 = call ptr @bms_make_singleton(i32 noundef 0) #16
  %43 = getelementptr inbounds nuw %struct.EnumItem, ptr %.074.lcssa, i64 %indvars.iv134
  %44 = load i32, ptr %43, align 4
  %indvars.iv.next135 = add nuw nsw i64 %indvars.iv134, 1
  %45 = trunc nuw i64 %indvars.iv.next135 to i32
  %46 = icmp sgt i32 %.079.lcssa, %45
  br i1 %46, label %.lr.ph124.preheader, label %._crit_edge125

.lr.ph124.preheader:                              ; preds = %41
  %47 = getelementptr inbounds nuw i8, ptr %43, i64 4
  %48 = load float, ptr %47, align 4
  br label %.lr.ph124

.lr.ph124:                                        ; preds = %.lr.ph124.preheader, %60
  %indvars.iv131 = phi i64 [ %indvars.iv, %.lr.ph124.preheader ], [ %indvars.iv.next132, %60 ]
  %.077121 = phi float [ %48, %.lr.ph124.preheader ], [ %.178.ph, %60 ]
  %.080120 = phi i32 [ 1, %.lr.ph124.preheader ], [ %.282.ph, %60 ]
  %.083119 = phi ptr [ %42, %.lr.ph124.preheader ], [ %.285.ph, %60 ]
  %49 = getelementptr inbounds nuw %struct.EnumItem, ptr %.074.lcssa, i64 %indvars.iv131
  %50 = load i32, ptr %49, align 4
  %51 = sub i32 %50, %44
  %52 = icmp ugt i32 %51, 8191
  br i1 %52, label %._crit_edge125, label %53

53:                                               ; preds = %.lr.ph124
  %54 = getelementptr inbounds nuw i8, ptr %49, i64 4
  %55 = load float, ptr %54, align 4
  %56 = fcmp ogt float %55, %.077121
  br i1 %56, label %57, label %60

57:                                               ; preds = %53
  %58 = call ptr @bms_add_member(ptr noundef %.083119, i32 noundef %51) #16
  %59 = add i32 %.080120, 1
  br label %60

60:                                               ; preds = %57, %53
  %.285.ph = phi ptr [ %.083119, %53 ], [ %58, %57 ]
  %.282.ph = phi i32 [ %.080120, %53 ], [ %59, %57 ]
  %.178.ph = phi float [ %.077121, %53 ], [ %55, %57 ]
  %indvars.iv.next132 = add nuw nsw i64 %indvars.iv131, 1
  %lftr.wideiv = trunc i64 %indvars.iv.next132 to i32
  %exitcond.not = icmp eq i32 %.079.lcssa, %lftr.wideiv
  br i1 %exitcond.not, label %._crit_edge125, label %.lr.ph124, !llvm.loop !18

._crit_edge125:                                   ; preds = %60, %.lr.ph124, %41
  %.083.lcssa = phi ptr [ %42, %41 ], [ %.083119, %.lr.ph124 ], [ %.285.ph, %60 ]
  %.080.lcssa = phi i32 [ 1, %41 ], [ %.080120, %.lr.ph124 ], [ %.282.ph, %60 ]
  %61 = icmp sgt i32 %.080.lcssa, %.090
  %.095..083.lcssa = select i1 %61, ptr %.095, ptr %.083.lcssa
  %.083.lcssa..095 = select i1 %61, ptr %.083.lcssa, ptr %.095
  %..092 = select i1 %61, i32 %44, i32 %.092
  %.080.lcssa..090 = call i32 @llvm.smax.i32(i32 %.080.lcssa, i32 %.090)
  call void @bms_free(ptr noundef %.095..083.lcssa) #16
  %62 = trunc nuw nsw i64 %indvars.iv134 to i32
  %63 = xor i32 %62, -1
  %64 = add i32 %.079.lcssa, %63
  %.not103 = icmp slt i32 %.080.lcssa..090, %64
  %indvars.iv.next = add nuw nsw i64 %indvars.iv, 1
  br i1 %.not103, label %40, label %65

65:                                               ; preds = %._crit_edge125, %40
  %.196 = phi ptr [ %.083.lcssa..095, %._crit_edge125 ], [ %.095, %40 ]
  %.193 = phi i32 [ %..092, %._crit_edge125 ], [ %.092, %40 ]
  %66 = load ptr, ptr @CacheMemoryContext, align 8
  %67 = load ptr, ptr @CurrentMemoryContext, align 8
  store ptr %66, ptr @CurrentMemoryContext, align 8
  %68 = shl nsw i64 %38, 3
  %69 = add nsw i64 %68, 20
  %70 = call ptr @palloc(i64 noundef %69) #16
  store i32 %.193, ptr %70, align 8
  %71 = call ptr @bms_copy(ptr noundef %.196) #16
  %72 = getelementptr inbounds nuw i8, ptr %70, i64 8
  store ptr %71, ptr %72, align 8
  %73 = getelementptr inbounds nuw i8, ptr %70, i64 16
  store i32 %.079.lcssa, ptr %73, align 8
  %74 = getelementptr inbounds nuw i8, ptr %70, i64 20
  call void @llvm.memcpy.p0.p0.i64(ptr nonnull align 4 %74, ptr align 4 %.074.lcssa, i64 %68, i1 false)
  store ptr %67, ptr @CurrentMemoryContext, align 8
  call void @pfree(ptr noundef %.074.lcssa) #16
  call void @bms_free(ptr noundef %.196) #16
  %75 = getelementptr inbounds nuw i8, ptr %0, i64 472
  %76 = load ptr, ptr %75, align 8
  %.not104 = icmp eq ptr %76, null
  br i1 %.not104, label %78, label %77

77:                                               ; preds = %65
  call void @pfree(ptr noundef nonnull %76) #16
  br label %78

78:                                               ; preds = %77, %65
  store ptr %70, ptr %75, align 8
  call void @llvm.lifetime.end.p0(i64 72, ptr nonnull %2) #16
  ret void
}